target datalayout = "e-m:e-p270:32:32-p271:32:32-p272:64:64-i64:64-i128:128-f80:128-n8:16:32:64-S128"
target triple = "x86_64-unknown-linux-gnu"

%"class.google::protobuf::internal::InternalMetadata" = type { i64 }
%"class.google::protobuf::internal::HasBits" = type { [1 x i32] }
%"class.google::protobuf::internal::CachedSize" = type { i32 }
%"class.google::protobuf::Message" = type { %"class.google::protobuf::MessageLite" }
%"class.google::protobuf::MessageLite" = type { ptr, %"class.google::protobuf::internal::InternalMetadata" }
%"class.google::protobuf::internal::RepeatedPtrFieldBase" = type { ptr, i32, i32, ptr }
%"struct.google::protobuf::internal::InternalMetadata::Container" = type { %"struct.google::protobuf::internal::InternalMetadata::ContainerBase", %"class.google::protobuf::UnknownFieldSet" }
%"struct.google::protobuf::internal::InternalMetadata::ContainerBase" = type { ptr }
%"class.google::protobuf::UnknownFieldSet" = type { %"class.std::vector" }
%"class.std::vector" = type { %"struct.std::_Vector_base" }
%"struct.std::_Vector_base" = type { %"struct.std::_Vector_base<google::protobuf::UnknownField, std::allocator<google::protobuf::UnknownField>>::_Vector_impl" }
%"struct.std::_Vector_base<google::protobuf::UnknownField, std::allocator<google::protobuf::UnknownField>>::_Vector_impl" = type { %"struct.std::_Vector_base<google::protobuf::UnknownField, std::allocator<google::protobuf::UnknownField>>::_Vector_impl_data" }
%"struct.std::_Vector_base<google::protobuf::UnknownField, std::allocator<google::protobuf::UnknownField>>::_Vector_impl_data" = type { ptr, ptr, ptr }
%"class.absl::lts_20230802::log_internal::NullStream" = type { i8 }
%"class.google::protobuf::FeatureSetDefaults" = type { %"class.google::protobuf::Message", %union.anon.41 }
%union.anon.41 = type { %"struct.google::protobuf::FeatureSetDefaults::Impl_" }
%"struct.google::protobuf::FeatureSetDefaults::Impl_" = type { %"class.google::protobuf::internal::HasBits", %"class.google::protobuf::internal::CachedSize", %"class.google::protobuf::RepeatedPtrField.40", i32, i32 }
%"class.google::protobuf::RepeatedPtrField.40" = type { %"class.google::protobuf::internal::RepeatedPtrFieldBase" }

; Function Attrs: mustprogress nounwind uwtable
define linkonce_odr hidden noundef zeroext i1 @_ZNK6google8protobuf8internal20RepeatedPtrFieldBase5emptyEv(ptr noundef nonnull align 8 dereferenceable(24) %this) #5 comdat align 2 {
entry:
  %this.addr = alloca ptr, align 8
  store ptr %this, ptr %this.addr, align 8
  %this1 = load ptr, ptr %this.addr, align 8
  %current_size_ = getelementptr inbounds %"class.google::protobuf::internal::RepeatedPtrFieldBase", ptr %this1, i32 0, i32 1
  %0 = load i32, ptr %current_size_, align 8
  %cmp = icmp eq i32 %0, 0
  ret i1 %cmp
}

; Function Attrs: mustprogress uwtable
define linkonce_odr hidden void @_ZN6google8protobuf8internal20RepeatedPtrFieldBase9MergeFromINS0_43FeatureSetDefaults_FeatureSetEditionDefaultEEEvRKS2_(ptr noundef nonnull align 8 dereferenceable(24) %this, ptr noundef nonnull align 8 dereferenceable(24) %from) #4 comdat align 2 {
entry:
  %this.addr = alloca ptr, align 8
  %from.addr = alloca ptr, align 8
  store ptr %this, ptr %this.addr, align 8
  store ptr %from, ptr %from.addr, align 8
  %this1 = load ptr, ptr %this.addr, align 8
  %0 = load ptr, ptr %from.addr, align 8
  call void @_ZN6google8protobuf8internal20RepeatedPtrFieldBase24MergeFromConcreteMessageERKS2_PFPvPNS0_5ArenaEPKvE(ptr noundef nonnull align 8 dereferenceable(24) %this1, ptr noundef nonnull align 8 dereferenceable(24) %0, ptr noundef @_ZN6google8protobuf5Arena13CopyConstructINS0_43FeatureSetDefaults_FeatureSetEditionDefaultEEEPvPS1_PKv)
  ret void
}

; Function Attrs: mustprogress nounwind uwtable
define linkonce_odr hidden noundef zeroext i1 @_ZNK6google8protobuf16RepeatedPtrFieldINS0_43FeatureSetDefaults_FeatureSetEditionDefaultEE5emptyEv(ptr noundef nonnull align 8 dereferenceable(24) %this) #5 comdat align 2 {
entry:
  %this.addr = alloca ptr, align 8
  store ptr %this, ptr %this.addr, align 8
  %this1 = load ptr, ptr %this.addr, align 8
  %call = call noundef zeroext i1 @_ZNK6google8protobuf8internal20RepeatedPtrFieldBase5emptyEv(ptr noundef nonnull align 8 dereferenceable(24) %this1)
  ret i1 %call
}

; Function Attrs: mustprogress nounwind uwtable
define linkonce_odr hidden noundef ptr @_ZNK6google8protobuf8internal16InternalMetadata8PtrValueINS2_9ContainerINS0_15UnknownFieldSetEEEEEPT_v(ptr noundef nonnull align 8 dereferenceable(8) %this) #5 comdat align 2 {
entry:
  %this.addr = alloca ptr, align 8
  store ptr %this, ptr %this.addr, align 8
  %this1 = load ptr, ptr %this.addr, align 8
  %ptr_ = getelementptr inbounds %"class.google::protobuf::internal::InternalMetadata", ptr %this1, i32 0, i32 0
  %0 = load i64, ptr %ptr_, align 8
  %and = and i64 %0, -2
  %1 = inttoptr i64 %and to ptr
  ret ptr %1
}

; Function Attrs: mustprogress uwtable
define linkonce_odr hidden void @_ZN6google8protobuf16RepeatedPtrFieldINS0_43FeatureSetDefaults_FeatureSetEditionDefaultEE9MergeFromERKS3_(ptr noundef nonnull align 8 dereferenceable(24) %this, ptr noundef nonnull align 8 dereferenceable(24) %other) #4 comdat align 2 {
entry:
  %this.addr = alloca ptr, align 8
  %other.addr = alloca ptr, align 8
  store ptr %this, ptr %this.addr, align 8
  store ptr %other, ptr %other.addr, align 8
  %this1 = load ptr, ptr %this.addr, align 8
  %0 = load ptr, ptr %other.addr, align 8
  %call = call noundef zeroext i1 @_ZNK6google8protobuf16RepeatedPtrFieldINS0_43FeatureSetDefaults_FeatureSetEditionDefaultEE5emptyEv(ptr noundef nonnull align 8 dereferenceable(24) %0)
  br i1 %call, label %if.then, label %if.end

if.then:                                          ; preds = %entry
  br label %return

if.end:                                           ; preds = %entry
  %1 = load ptr, ptr %other.addr, align 8
  call void @_ZN6google8protobuf8internal20RepeatedPtrFieldBase9MergeFromINS0_43FeatureSetDefaults_FeatureSetEditionDefaultEEEvRKS2_(ptr noundef nonnull align 8 dereferenceable(24) %this1, ptr noundef nonnull align 8 dereferenceable(24) %1)
  br label %return

return:                                           ; preds = %if.end, %if.then
  ret void
}

; Function Attrs: mustprogress nounwind uwtable
define linkonce_odr hidden noundef nonnull align 8 dereferenceable(24) ptr @_ZNK6google8protobuf18FeatureSetDefaults18_internal_defaultsEv(ptr noundef nonnull align 8 dereferenceable(56) %this) #5 comdat align 2 {
entry:
  %this.addr = alloca ptr, align 8
  store ptr %this, ptr %this.addr, align 8
  %this1 = load ptr, ptr %this.addr, align 8
  %0 = getelementptr inbounds %"class.google::protobuf::FeatureSetDefaults", ptr %this1, i32 0, i32 1
  %defaults_ = getelementptr inbounds %"struct.google::protobuf::FeatureSetDefaults::Impl_", ptr %0, i32 0, i32 2
  ret ptr %defaults_
}

; Function Attrs: mustprogress nounwind uwtable
define linkonce_odr hidden noundef ptr @_ZN6google8protobuf18FeatureSetDefaults26_internal_mutable_defaultsEv(ptr noundef nonnull align 8 dereferenceable(56) %this) #5 comdat align 2 {
entry:
  %this.addr = alloca ptr, align 8
  store ptr %this, ptr %this.addr, align 8
  %this1 = load ptr, ptr %this.addr, align 8
  %0 = getelementptr inbounds %"class.google::protobuf::FeatureSetDefaults", ptr %this1, i32 0, i32 1
  %defaults_ = getelementptr inbounds %"struct.google::protobuf::FeatureSetDefaults::Impl_", ptr %0, i32 0, i32 2
  ret ptr %defaults_
}

; Function Attrs: mustprogress nounwind uwtable
define linkonce_odr hidden noundef nonnull align 1 dereferenceable(1) ptr @_ZN4absl12lts_2023080212log_internal10NullStream14InternalStreamEv(ptr noundef nonnull align 1 dereferenceable(1) %this) #5 comdat align 2 {
entry:
  %this.addr = alloca ptr, align 8
  store ptr %this, ptr %this.addr, align 8
  %this1 = load ptr, ptr %this.addr, align 8
  ret ptr %this1
}

; Function Attrs: mustprogress uwtable
define void @_ZN6google8protobuf18FeatureSetDefaults9MergeImplERNS0_11MessageLiteERKS2_(ptr noundef nonnull align 8 dereferenceable(16) %to_msg, ptr noundef nonnull align 8 dereferenceable(16) %from_msg) #4 align 2 {
entry:
  %this.addr.i33 = alloca ptr, align 8
  %this.addr.i31 = alloca ptr, align 8
  %this.addr.i26 = alloca ptr, align 8
  %index.addr.i27 = alloca i32, align 4
  %this.addr.i24 = alloca ptr, align 8
  %index.addr.i = alloca i32, align 4
  %this.addr.i.i = alloca ptr, align 8
  %retval.i = alloca ptr, align 8
  %this.addr.i20 = alloca ptr, align 8
  %default_instance.addr.i = alloca ptr, align 8
  %this.addr.i17 = alloca ptr, align 8
  %this.addr.i = alloca ptr, align 8
  %other.addr.i = alloca ptr, align 8
  %to_msg.addr = alloca ptr, align 8
  %from_msg.addr = alloca ptr, align 8
  %_this = alloca ptr, align 8
  %from = alloca ptr, align 8
  %ref.tmp = alloca %"class.absl::lts_20230802::log_internal::NullStream", align 1
  %cached_has_bits = alloca i32, align 4
  store ptr %to_msg, ptr %to_msg.addr, align 8
  store ptr %from_msg, ptr %from_msg.addr, align 8
  %0 = load ptr, ptr %to_msg.addr, align 8
  store ptr %0, ptr %_this, align 8
  %1 = load ptr, ptr %from_msg.addr, align 8
  store ptr %1, ptr %from, align 8
  br label %while.cond

while.cond:                                       ; preds = %while.body, %entry
  br i1 false, label %while.body, label %while.end

while.body:                                       ; preds = %while.cond
  %call = call noundef nonnull align 1 dereferenceable(1) ptr @_ZN4absl12lts_2023080212log_internal10NullStream14InternalStreamEv(ptr noundef nonnull align 1 dereferenceable(1) %ref.tmp)
  br label %while.cond, !llvm.loop !178

while.end:                                        ; preds = %while.cond
  store i32 0, ptr %cached_has_bits, align 4
  %2 = load ptr, ptr %_this, align 8
  %call1 = call noundef ptr @_ZN6google8protobuf18FeatureSetDefaults26_internal_mutable_defaultsEv(ptr noundef nonnull align 8 dereferenceable(56) %2)
  %3 = load ptr, ptr %from, align 8
  %call2 = call noundef nonnull align 8 dereferenceable(24) ptr @_ZNK6google8protobuf18FeatureSetDefaults18_internal_defaultsEv(ptr noundef nonnull align 8 dereferenceable(56) %3)
  call void @_ZN6google8protobuf16RepeatedPtrFieldINS0_43FeatureSetDefaults_FeatureSetEditionDefaultEE9MergeFromERKS3_(ptr noundef nonnull align 8 dereferenceable(24) %call1, ptr noundef nonnull align 8 dereferenceable(24) %call2)
  %4 = load ptr, ptr %from, align 8
  %5 = getelementptr inbounds %"class.google::protobuf::FeatureSetDefaults", ptr %4, i32 0, i32 1
  %_has_bits_ = getelementptr inbounds %"struct.google::protobuf::FeatureSetDefaults::Impl_", ptr %5, i32 0, i32 0
  store ptr %_has_bits_, ptr %this.addr.i26, align 8
  store i32 0, ptr %index.addr.i27, align 4
  %this1.i28 = load ptr, ptr %this.addr.i26, align 8
  %6 = load i32, ptr %index.addr.i27, align 4
  %idxprom.i29 = sext i32 %6 to i64
  %arrayidx.i30 = getelementptr inbounds [1 x i32], ptr %this1.i28, i64 0, i64 %idxprom.i29
  %7 = load i32, ptr %arrayidx.i30, align 4
  store i32 %7, ptr %cached_has_bits, align 4
  %8 = load i32, ptr %cached_has_bits, align 4
  %and = and i32 %8, 3
  %tobool = icmp ne i32 %and, 0
  br i1 %tobool, label %if.then, label %if.end13

if.then:                                          ; preds = %while.end
  %9 = load i32, ptr %cached_has_bits, align 4
  %and4 = and i32 %9, 1
  %tobool5 = icmp ne i32 %and4, 0
  br i1 %tobool5, label %if.then6, label %if.end

if.then6:                                         ; preds = %if.then
  %10 = load ptr, ptr %from, align 8
  %11 = getelementptr inbounds %"class.google::protobuf::FeatureSetDefaults", ptr %10, i32 0, i32 1
  %minimum_edition_ = getelementptr inbounds %"struct.google::protobuf::FeatureSetDefaults::Impl_", ptr %11, i32 0, i32 3
  %12 = load i32, ptr %minimum_edition_, align 8
  %13 = load ptr, ptr %_this, align 8
  %14 = getelementptr inbounds %"class.google::protobuf::FeatureSetDefaults", ptr %13, i32 0, i32 1
  %minimum_edition_7 = getelementptr inbounds %"struct.google::protobuf::FeatureSetDefaults::Impl_", ptr %14, i32 0, i32 3
  store i32 %12, ptr %minimum_edition_7, align 8
  br label %if.end

if.end:                                           ; preds = %if.then6, %if.then
  %15 = load i32, ptr %cached_has_bits, align 4
  %and8 = and i32 %15, 2
  %tobool9 = icmp ne i32 %and8, 0
  br i1 %tobool9, label %if.then10, label %if.end12

if.then10:                                        ; preds = %if.end
  %16 = load ptr, ptr %from, align 8
  %17 = getelementptr inbounds %"class.google::protobuf::FeatureSetDefaults", ptr %16, i32 0, i32 1
  %maximum_edition_ = getelementptr inbounds %"struct.google::protobuf::FeatureSetDefaults::Impl_", ptr %17, i32 0, i32 4
  %18 = load i32, ptr %maximum_edition_, align 4
  %19 = load ptr, ptr %_this, align 8
  %20 = getelementptr inbounds %"class.google::protobuf::FeatureSetDefaults", ptr %19, i32 0, i32 1
  %maximum_edition_11 = getelementptr inbounds %"struct.google::protobuf::FeatureSetDefaults::Impl_", ptr %20, i32 0, i32 4
  store i32 %18, ptr %maximum_edition_11, align 4
  br label %if.end12

if.end12:                                         ; preds = %if.then10, %if.end
  br label %if.end13

if.end13:                                         ; preds = %if.end12, %while.end
  %21 = load i32, ptr %cached_has_bits, align 4
  %22 = load ptr, ptr %_this, align 8
  %23 = getelementptr inbounds %"class.google::protobuf::FeatureSetDefaults", ptr %22, i32 0, i32 1
  %_has_bits_14 = getelementptr inbounds %"struct.google::protobuf::FeatureSetDefaults::Impl_", ptr %23, i32 0, i32 0
  store ptr %_has_bits_14, ptr %this.addr.i24, align 8
  store i32 0, ptr %index.addr.i, align 4
  %this1.i25 = load ptr, ptr %this.addr.i24, align 8
  %24 = load i32, ptr %index.addr.i, align 4
  %idxprom.i = sext i32 %24 to i64
  %arrayidx.i = getelementptr inbounds [1 x i32], ptr %this1.i25, i64 0, i64 %idxprom.i
  %25 = load i32, ptr %arrayidx.i, align 4
  %or = or i32 %25, %21
  store i32 %or, ptr %arrayidx.i, align 4
  %26 = load ptr, ptr %_this, align 8
  %_internal_metadata_ = getelementptr inbounds %"class.google::protobuf::MessageLite", ptr %26, i32 0, i32 1
  %27 = load ptr, ptr %from, align 8
  %_internal_metadata_16 = getelementptr inbounds %"class.google::protobuf::MessageLite", ptr %27, i32 0, i32 1
  store ptr %_internal_metadata_, ptr %this.addr.i, align 8
  store ptr %_internal_metadata_16, ptr %other.addr.i, align 8
  %this1.i = load ptr, ptr %this.addr.i, align 8
  %28 = load ptr, ptr %other.addr.i, align 8
  store ptr %28, ptr %this.addr.i17, align 8
  %this1.i18 = load ptr, ptr %this.addr.i17, align 8
  store ptr %this1.i18, ptr %this.addr.i33, align 8
  %this1.i34 = load ptr, ptr %this.addr.i33, align 8
  %29 = load i64, ptr %this1.i34, align 8
  %and.i35 = and i64 %29, 1
  %tobool.i36 = icmp ne i64 %and.i35, 0
  br i1 %tobool.i36, label %if.then.i, label %_ZN6google8protobuf8internal16InternalMetadata9MergeFromINS0_15UnknownFieldSetEEEvRKS2_.exit

if.then.i:                                        ; preds = %if.end13
  %30 = load ptr, ptr %other.addr.i, align 8
  store ptr %30, ptr %this.addr.i20, align 8
  store ptr null, ptr %default_instance.addr.i, align 8
  %this1.i21 = load ptr, ptr %this.addr.i20, align 8
  store ptr %this1.i21, ptr %this.addr.i.i, align 8
  %this1.i.i = load ptr, ptr %this.addr.i.i, align 8
  store ptr %this1.i.i, ptr %this.addr.i31, align 8
  %this1.i32 = load ptr, ptr %this.addr.i31, align 8
  %31 = load i64, ptr %this1.i32, align 8
  %and.i = and i64 %31, 1
  %tobool.i = icmp ne i64 %and.i, 0
  br i1 %tobool.i, label %if.then.i22, label %if.else.i

if.then.i22:                                      ; preds = %if.then.i
  %call2.i23 = call noundef ptr @_ZNK6google8protobuf8internal16InternalMetadata8PtrValueINS2_9ContainerINS0_15UnknownFieldSetEEEEEPT_v(ptr noundef nonnull align 8 dereferenceable(8) %this1.i21)
  %unknown_fields.i = getelementptr inbounds %"struct.google::protobuf::internal::InternalMetadata::Container", ptr %call2.i23, i32 0, i32 1
  store ptr %unknown_fields.i, ptr %retval.i, align 8
  br label %_ZNK6google8protobuf8internal16InternalMetadata14unknown_fieldsINS0_15UnknownFieldSetEEERKT_PFS7_vE.exit

if.else.i:                                        ; preds = %if.then.i
  %32 = load ptr, ptr %default_instance.addr.i, align 8
  %call3.i = call noundef nonnull align 8 dereferenceable(24) ptr %32()
  store ptr %call3.i, ptr %retval.i, align 8
  br label %_ZNK6google8protobuf8internal16InternalMetadata14unknown_fieldsINS0_15UnknownFieldSetEEERKT_PFS7_vE.exit

_ZNK6google8protobuf8internal16InternalMetadata14unknown_fieldsINS0_15UnknownFieldSetEEERKT_PFS7_vE.exit: ; preds = %if.else.i, %if.then.i22
  %33 = load ptr, ptr %retval.i, align 8
  call void @_ZN6google8protobuf8internal16InternalMetadata11DoMergeFromINS0_15UnknownFieldSetEEEvRKT_(ptr noundef nonnull align 8 dereferenceable(8) %this1.i, ptr noundef nonnull align 8 dereferenceable(24) %33)
  br label %_ZN6google8protobuf8internal16InternalMetadata9MergeFromINS0_15UnknownFieldSetEEEvRKS2_.exit

_ZN6google8protobuf8internal16InternalMetadata9MergeFromINS0_15UnknownFieldSetEEEvRKS2_.exit: ; preds = %_ZNK6google8protobuf8internal16InternalMetadata14unknown_fieldsINS0_15UnknownFieldSetEEERKT_PFS7_vE.exit, %if.end13
  ret void
}