; Function Attrs: mustprogress uwtable
define void @_ZN6google8protobuf18FeatureSetDefaults9MergeImplERNS0_11MessageLiteERKS2_(ptr noundef nonnull align 8 dereferenceable(16) %to_msg, ptr noundef nonnull align 8 dereferenceable(16) %from_msg) #3 align 2 {
entry:
  %current_size_.i.i.i = getelementptr inbounds i8, ptr %from_msg, i64 32
  %0 = load i32, ptr %current_size_.i.i.i, align 8
  %cmp.i.i.i = icmp eq i32 %0, 0
  br i1 %cmp.i.i.i, label %_ZN6google8protobuf16RepeatedPtrFieldINS0_43FeatureSetDefaults_FeatureSetEditionDefaultEE9MergeFromERKS3_.exit, label %if.end.i

if.end.i:                                         ; preds = %entry
  %defaults_.i13 = getelementptr inbounds i8, ptr %from_msg, i64 24
  %defaults_.i = getelementptr inbounds i8, ptr %to_msg, i64 24
  tail call void @_ZN6google8protobuf8internal20RepeatedPtrFieldBase24MergeFromConcreteMessageERKS2_PFPvPNS0_5ArenaEPKvE(ptr noundef nonnull align 8 dereferenceable(24) %defaults_.i, ptr noundef nonnull align 8 dereferenceable(24) %defaults_.i13, ptr noundef nonnull @_ZN6google8protobuf5Arena13CopyConstructINS0_43FeatureSetDefaults_FeatureSetEditionDefaultEEEPvPS1_PKv)
  br label %_ZN6google8protobuf16RepeatedPtrFieldINS0_43FeatureSetDefaults_FeatureSetEditionDefaultEE9MergeFromERKS3_.exit

_ZN6google8protobuf16RepeatedPtrFieldINS0_43FeatureSetDefaults_FeatureSetEditionDefaultEE9MergeFromERKS3_.exit: ; preds = %entry, %if.end.i
  %1 = getelementptr inbounds i8, ptr %from_msg, i64 16
  %2 = load i32, ptr %1, align 8
  %and = and i32 %2, 3
  %tobool.not = icmp eq i32 %and, 0
  br i1 %tobool.not, label %if.end13, label %if.then

if.then:                                          ; preds = %_ZN6google8protobuf16RepeatedPtrFieldINS0_43FeatureSetDefaults_FeatureSetEditionDefaultEE9MergeFromERKS3_.exit
  %and4 = and i32 %2, 1
  %tobool5.not = icmp eq i32 %and4, 0
  br i1 %tobool5.not, label %if.end, label %if.then6

if.then6:                                         ; preds = %if.then
  %minimum_edition_ = getelementptr inbounds i8, ptr %from_msg, i64 48
  %3 = load i32, ptr %minimum_edition_, align 8
  %minimum_edition_7 = getelementptr inbounds i8, ptr %to_msg, i64 48
  store i32 %3, ptr %minimum_edition_7, align 8
  br label %if.end

if.end:                                           ; preds = %if.then6, %if.then
  %and8 = and i32 %2, 2
  %tobool9.not = icmp eq i32 %and8, 0
  br i1 %tobool9.not, label %if.end13, label %if.then10

if.then10:                                        ; preds = %if.end
  %maximum_edition_ = getelementptr inbounds i8, ptr %from_msg, i64 52
  %4 = load i32, ptr %maximum_edition_, align 4
  %maximum_edition_11 = getelementptr inbounds i8, ptr %to_msg, i64 52
  store i32 %4, ptr %maximum_edition_11, align 4
  br label %if.end13

if.end13:                                         ; preds = %if.end, %if.then10, %_ZN6google8protobuf16RepeatedPtrFieldINS0_43FeatureSetDefaults_FeatureSetEditionDefaultEE9MergeFromERKS3_.exit
  %5 = getelementptr inbounds i8, ptr %to_msg, i64 16
  %6 = load i32, ptr %5, align 8
  %or = or i32 %6, %2
  store i32 %or, ptr %5, align 8
  %_internal_metadata_16 = getelementptr inbounds i8, ptr %from_msg, i64 8
  %7 = load i64, ptr %_internal_metadata_16, align 8
  %and.i35 = and i64 %7, 1
  %tobool.i36.not = icmp eq i64 %and.i35, 0
  br i1 %tobool.i36.not, label %_ZN6google8protobuf8internal16InternalMetadata9MergeFromINS0_15UnknownFieldSetEEEvRKS2_.exit, label %if.then.i22

if.then.i22:                                      ; preds = %if.end13
  %_internal_metadata_ = getelementptr inbounds i8, ptr %to_msg, i64 8
  %and.i = and i64 %7, -2
  %8 = inttoptr i64 %and.i to ptr
  %unknown_fields.i = getelementptr inbounds i8, ptr %8, i64 8
  tail call void @_ZN6google8protobuf8internal16InternalMetadata11DoMergeFromINS0_15UnknownFieldSetEEEvRKT_(ptr noundef nonnull align 8 dereferenceable(8) %_internal_metadata_, ptr noundef nonnull align 8 dereferenceable(24) %unknown_fields.i)
  br label %_ZN6google8protobuf8internal16InternalMetadata9MergeFromINS0_15UnknownFieldSetEEEvRKS2_.exit

_ZN6google8protobuf8internal16InternalMetadata9MergeFromINS0_15UnknownFieldSetEEEvRKS2_.exit: ; preds = %if.then.i22, %if.end13
  ret void
}